centhought.traits.traits
__newobj__
p0
(cmodel
Construction
p1
tp2
Rp3
(dp4
S'__traits_version__'
p5
S'3.1.0'
p6
sS'elements'
p7
ccopy_reg
_reconstructor
p8
(centhought.traits.trait_handlers
TraitListObject
p9
c__builtin__
list
p10
(lp11
g0
(cmodel
Element
p12
tp13
Rp14
(dp15
g5
g6
sS'mutatable_material'
p16
I01
sS'joint1'
p17
g0
(cmodel
Joint
p18
tp19
Rp20
(dp21
g5
g6
sS'mutatable_y'
p22
I00
sS'mutatable_x'
p23
I00
sS'max_displacement_y'
p24
F0.050000000000000003
sS'max_displacement_x'
p25
F0.050000000000000003
sS'force_y'
p26
F0.0
sS'force_x'
p27
F0.0
sS'movable_x'
p28
I00
sS'movable_y'
p29
I00
sS'y'
p30
cnumpy.core.multiarray
scalar
p31
(cnumpy
dtype
p32
(S'f8'
p33
I0
I1
tp34
Rp35
(I3
S'<'
p36
NNNI-1
I-1
I0
tp37
bS'\x00\x00\x00\x00\x00\x00\x00\xc0'
p38
tp39
Rp40
sS'x'
p41
g31
(g35
S'\x00\x00\x00\x00\x00\x00(@'
p42
tp43
Rp44
sbsS'joint2'
p45
g0
(g18
tp46
Rp47
(dp48
g5
g6
sg22
I00
sg23
I00
sg24
F0.050000000000000003
sg25
F0.050000000000000003
sg26
F-1.0
sg27
F0.0
sg28
I01
sg29
I01
sg30
g31
(g35
S'\x00\x00\x00\x00\x00\x00\x00\xc0'
p49
tp50
Rp51
sg41
g31
(g35
S'\x00\x00\x00\x00\x00\x00"@'
p52
tp53
Rp54
sbsS'material'
p55
g0
(cmodel
ElementMaterial
p56
tp57
Rp58
(dp59
g5
g6
sS'E'
p60
F210000000000.0
sS'name'
p61
S'steel'
p62
sS'density'
p63
F7700.0
sS'radius'
p64
g31
(g35
S'*\\\x8f\xc2\xf5(\xbc?'
p65
tp66
Rp67
sS'maximum_stress'
p68
F100000000.0
sbsS'deletable'
p69
I00
sbag0
(g12
tp70
Rp71
(dp72
g5
g6
sg16
I01
sg17
g47
sg45
g0
(g18
tp73
Rp74
(dp75
g5
g6
sg22
I00
sg23
I00
sg24
F0.050000000000000003
sg25
F0.050000000000000003
sg26
F0.0
sg27
F0.0
sg28
I01
sg29
I00
sg30
g31
(g35
S'\x00\x00\x00\x00\x00\x00\x00\xc0'
p76
tp77
Rp78
sg41
g31
(g35
S'\x00\x00\x00\x00\x00\x00\x18@'
p79
tp80
Rp81
sbsg55
g58
sg69
I00
sbag0
(g12
tp82
Rp83
(dp84
g5
g6
sg16
I01
sg17
g74
sg45
g0
(g18
tp85
Rp86
(dp87
g5
g6
sg22
I00
sg23
I00
sg24
F0.050000000000000003
sg25
F0.050000000000000003
sg26
F-1.0
sg27
F0.0
sg28
I01
sg29
I01
sg30
g31
(g35
S'\x00\x00\x00\x00\x00\x00\x00\xc0'
p88
tp89
Rp90
sg41
g31
(g35
S'\x00\x00\x00\x00\x00\x00\x08@'
p91
tp92
Rp93
sbsg55
g58
sg69
I00
sbag0
(g12
tp94
Rp95
(dp96
g5
g6
sg16
I01
sg17
g86
sg45
g0
(g18
tp97
Rp98
(dp99
g5
g6
sg22
I00
sg23
I00
sg24
F0.050000000000000003
sg25
F0.050000000000000003
sg26
F-1.0
sg27
F0.0
sg28
I01
sg29
I01
sg30
g31
(g35
S'\x00\x00\x00\x00\x00\x00\x00\xc0'
p100
tp101
Rp102
sg41
g31
(g35
S'\x00\x00\x00\x00\x00\x00\x00\x00'
p103
tp104
Rp105
sbsg55
g58
sg69
I00
sbag0
(g12
tp106
Rp107
(dp108
g5
g6
sg16
I01
sg17
g98
sg45
g0
(g18
tp109
Rp110
(dp111
g5
g6
sg22
I00
sg23
I00
sg24
F0.050000000000000003
sg25
F0.050000000000000003
sg26
F-1.0
sg27
F0.0
sg28
I01
sg29
I01
sg30
g31
(g35
S'\x00\x00\x00\x00\x00\x00\x00\xc0'
p112
tp113
Rp114
sg41
g31
(g35
S'\x00\x00\x00\x00\x00\x00\x08\xc0'
p115
tp116
Rp117
sbsg55
g58
sg69
I00
sbag0
(g12
tp118
Rp119
(dp120
g5
g6
sg16
I01
sg17
g110
sg45
g0
(g18
tp121
Rp122
(dp123
g5
g6
sg22
I00
sg23
I00
sg24
F0.050000000000000003
sg25
F0.050000000000000003
sg26
F0.0
sg27
F0.0
sg28
I01
sg29
I00
sg30
g31
(g35
S'\x00\x00\x00\x00\x00\x00\x00\xc0'
p124
tp125
Rp126
sg41
g31
(g35
S'\x00\x00\x00\x00\x00\x00\x18\xc0'
p127
tp128
Rp129
sbsg55
g58
sg69
I00
sbag0
(g12
tp130
Rp131
(dp132
g5
g6
sg16
I01
sg17
g122
sg45
g0
(g18
tp133
Rp134
(dp135
g5
g6
sg22
I00
sg23
I00
sg24
F0.050000000000000003
sg25
F0.050000000000000003
sg26
F-1.0
sg27
F0.0
sg28
I01
sg29
I01
sg30
g31
(g35
S'\x00\x00\x00\x00\x00\x00\x00\xc0'
p136
tp137
Rp138
sg41
g31
(g35
S'\x00\x00\x00\x00\x00\x00"\xc0'
p139
tp140
Rp141
sbsg55
g58
sg69
I00
sbag0
(g12
tp142
Rp143
(dp144
g5
g6
sg16
I01
sg17
g134
sg45
g0
(g18
tp145
Rp146
(dp147
g5
g6
sg22
I00
sg23
I00
sg24
F0.050000000000000003
sg25
F0.050000000000000003
sg26
F0.0
sg27
F0.0
sg28
I00
sg29
I00
sg30
g31
(g35
S'\x00\x00\x00\x00\x00\x00\x00\xc0'
p148
tp149
Rp150
sg41
g31
(g35
S'\x00\x00\x00\x00\x00\x00(\xc0'
p151
tp152
Rp153
sbsg55
g58
sg69
I00
sbag0
(g12
tp154
Rp155
(dp156
g5
g6
sg16
I01
sg17
g146
sg45
g0
(g18
tp157
Rp158
(dp159
g5
g6
sg22
I01
sg23
I00
sg24
F0.050000000000000003
sg25
F0.050000000000000003
sg26
F0.0
sg27
F0.0
sg28
I01
sg29
I01
sg30
g31
(g35
S'\x00\x00\x00\x00\x00\x00\xf0?'
p160
tp161
Rp162
sg41
g31
(g35
S'\x00\x00\x00\x00\x00\x00"\xc0'
p163
tp164
Rp165
sbsg55
g58
sg69
I01
sbag0
(g12
tp166
Rp167
(dp168
g5
g6
sg16
I01
sg17
g158
sg45
g134
sg55
g58
sg69
I01
sbag0
(g12
tp169
Rp170
(dp171
g5
g6
sg16
I01
sg17
g134
sg45
g0
(g18
tp172
Rp173
(dp174
g5
g6
sg22
I01
sg23
I00
sg24
F0.050000000000000003
sg25
F0.050000000000000003
sg26
F0.0
sg27
F0.0
sg28
I01
sg29
I01
sg30
g31
(g35
S'\x00\x00\x00\x00\x00\x00\xf0?'
p175
tp176
Rp177
sg41
g31
(g35
S'\x00\x00\x00\x00\x00\x00\x18\xc0'
p178
tp179
Rp180
sbsg55
g58
sg69
I01
sbag0
(g12
tp181
Rp182
(dp183
g5
g6
sg16
I01
sg17
g173
sg45
g122
sg55
g58
sg69
I01
sbag0
(g12
tp184
Rp185
(dp186
g5
g6
sg16
I01
sg17
g122
sg45
g0
(g18
tp187
Rp188
(dp189
g5
g6
sg22
I01
sg23
I00
sg24
F0.050000000000000003
sg25
F0.050000000000000003
sg26
F0.0
sg27
F0.0
sg28
I01
sg29
I01
sg30
g31
(g35
S'\x00\x00\x00\x00\x00\x00\xf0?'
p190
tp191
Rp192
sg41
g31
(g35
S'\x00\x00\x00\x00\x00\x00\x08\xc0'
p193
tp194
Rp195
sbsg55
g58
sg69
I01
sbag0
(g12
tp196
Rp197
(dp198
g5
g6
sg16
I01
sg17
g188
sg45
g110
sg55
g58
sg69
I01
sbag0
(g12
tp199
Rp200
(dp201
g5
g6
sg16
I01
sg17
g110
sg45
g173
sg55
g58
sg69
I01
sbag0
(g12
tp202
Rp203
(dp204
g5
g6
sg16
I01
sg17
g173
sg45
g188
sg55
g58
sg69
I01
sbag0
(g12
tp205
Rp206
(dp207
g5
g6
sg16
I01
sg17
g188
sg45
g98
sg55
g58
sg69
I01
sbag0
(g12
tp208
Rp209
(dp210
g5
g6
sg16
I01
sg17
g98
sg45
g0
(g18
tp211
Rp212
(dp213
g5
g6
sg22
I01
sg23
I00
sg24
F0.050000000000000003
sg25
F0.050000000000000003
sg26
F0.0
sg27
F0.0
sg28
I01
sg29
I01
sg30
g31
(g35
S'\x00\x00\x00\x00\x00\x00\xf0?'
p214
tp215
Rp216
sg41
g31
(g35
S'\x00\x00\x00\x00\x00\x00\x08@'
p217
tp218
Rp219
sbsg55
g58
sg69
I01
sbag0
(g12
tp220
Rp221
(dp222
g5
g6
sg16
I01
sg17
g212
sg45
g74
sg55
g58
sg69
I01
sbag0
(g12
tp223
Rp224
(dp225
g5
g6
sg16
I01
sg17
g74
sg45
g0
(g18
tp226
Rp227
(dp228
g5
g6
sg22
I01
sg23
I00
sg24
F0.050000000000000003
sg25
F0.050000000000000003
sg26
F0.0
sg27
F0.0
sg28
I01
sg29
I01
sg30
g31
(g35
S'\x00\x00\x00\x00\x00\x00\xf0?'
p229
tp230
Rp231
sg41
g31
(g35
S'\x00\x00\x00\x00\x00\x00\x18@'
p232
tp233
Rp234
sbsg55
g58
sg69
I01
sbag0
(g12
tp235
Rp236
(dp237
g5
g6
sg16
I01
sg17
g227
sg45
g212
sg55
g58
sg69
I01
sbag0
(g12
tp238
Rp239
(dp240
g5
g6
sg16
I01
sg17
g212
sg45
g86
sg55
g58
sg69
I01
sbag0
(g12
tp241
Rp242
(dp243
g5
g6
sg16
I01
sg17
g86
sg45
g227
sg55
g58
sg69
I01
sbag0
(g12
tp244
Rp245
(dp246
g5
g6
sg16
I01
sg17
g227
sg45
g47
sg55
g58
sg69
I01
sbag0
(g12
tp247
Rp248
(dp249
g5
g6
sg16
I01
sg17
g47
sg45
g0
(g18
tp250
Rp251
(dp252
g5
g6
sg22
I01
sg23
I00
sg24
F0.050000000000000003
sg25
F0.050000000000000003
sg26
F0.0
sg27
F0.0
sg28
I01
sg29
I01
sg30
g31
(g35
S'\x00\x00\x00\x00\x00\x00\xf0?'
p253
tp254
Rp255
sg41
g31
(g35
S'\x00\x00\x00\x00\x00\x00"@'
p256
tp257
Rp258
sbsg55
g58
sg69
I01
sbag0
(g12
tp259
Rp260
(dp261
g5
g6
sg16
I01
sg17
g251
sg45
g20
sg55
g58
sg69
I01
sbag0
(g12
tp262
Rp263
(dp264
g5
g6
sg16
I01
sg17
g251
sg45
g74
sg55
g58
sg69
I01
sbag0
(g12
tp265
Rp266
(dp267
g5
g6
sg16
I01
sg17
g251
sg45
g227
sg55
g58
sg69
I01
sbag0
(g12
tp268
Rp269
(dp270
g5
g6
sg16
I01
sg17
g158
sg45
g173
sg55
g58
sg69
I01
sbag0
(g12
tp271
Rp272
(dp273
g5
g6
sg16
I01
sg17
g158
sg45
g122
sg55
g58
sg69
I01
sbag0
(g12
tp274
Rp275
(dp276
g5
g6
sg16
I01
sg17
g188
sg45
g0
(g18
tp277
Rp278
(dp279
g5
g6
sg22
I01
sg23
I00
sg24
F0.050000000000000003
sg25
F0.050000000000000003
sg26
F0.0
sg27
F0.0
sg28
I01
sg29
I01
sg30
g31
(g35
S'\x00\x00\x00\x00\x00\x00\xf0?'
p280
tp281
Rp282
sg41
g31
(g35
S'\x00\x00\x00\x00\x00\x00\x00\x00'
p283
tp284
Rp285
sbsg55
g58
sg69
I01
sbag0
(g12
tp286
Rp287
(dp288
g5
g6
sg16
I01
sg17
g278
sg45
g212
sg55
g58
sg69
I01
sbag0
(g12
tp289
Rp290
(dp291
g5
g6
sg16
I01
sg17
g278
sg45
g98
sg55
g58
sg69
I01
sbatp292
Rp293
(dp294
S'name_items'
p295
S'elements_items'
p296
sS'object'
p297
g3
sg61
g7
sbsS'available_element_materials'
p298
g8
(g9
g10
(lp299
g0
(g56
tp300
Rp301
(dp302
g5
g6
sg60
F210000000000.0
sg61
g62
sg63
F7700.0
sg64
g31
(g35
S'\xb9\x1e\x85\xebQ\xb8\x9e?'
p303
tp304
Rp305
sg68
F100000000.0
sbag0
(g56
tp306
Rp307
(dp308
g5
g6
sg60
F210000000000.0
sg61
g62
sg63
F7700.0
sg64
g31
(g35
S'{\x14\xaeG\xe1z\xa4?'
p309
tp310
Rp311
sg68
F100000000.0
sbag0
(g56
tp312
Rp313
(dp314
g5
g6
sg60
F210000000000.0
sg61
g62
sg63
F7700.0
sg64
g31
(g35
S'\x9a\x99\x99\x99\x99\x99\xa9?'
p315
tp316
Rp317
sg68
F100000000.0
sbag0
(g56
tp318
Rp319
(dp320
g5
g6
sg60
F210000000000.0
sg61
g62
sg63
F7700.0
sg64
g31
(g35
S'\xb9\x1e\x85\xebQ\xb8\xae?'
p321
tp322
Rp323
sg68
F100000000.0
sbag0
(g56
tp324
Rp325
(dp326
g5
g6
sg60
F210000000000.0
sg61
g62
sg63
F7700.0
sg64
g31
(g35
S'\xecQ\xb8\x1e\x85\xeb\xb1?'
p327
tp328
Rp329
sg68
F100000000.0
sbag0
(g56
tp330
Rp331
(dp332
g5
g6
sg60
F210000000000.0
sg61
g62
sg63
F7700.0
sg64
g31
(g35
S'|\x14\xaeG\xe1z\xb4?'
p333
tp334
Rp335
sg68
F100000000.0
sbag0
(g56
tp336
Rp337
(dp338
g5
g6
sg60
F210000000000.0
sg61
g62
sg63
F7700.0
sg64
g31
(g35
S'\x0b\xd7\xa3p=\n\xb7?'
p339
tp340
Rp341
sg68
F100000000.0
sbag0
(g56
tp342
Rp343
(dp344
g5
g6
sg60
F210000000000.0
sg61
g62
sg63
F7700.0
sg64
g31
(g35
S'\x9a\x99\x99\x99\x99\x99\xb9?'
p345
tp346
Rp347
sg68
F100000000.0
sbag58
ag0
(g56
tp348
Rp349
(dp350
g5
g6
sg60
F210000000000.0
sg61
g62
sg63
F7700.0
sg64
g31
(g35
S'\xb9\x1e\x85\xebQ\xb8\xbe?'
p351
tp352
Rp353
sg68
F100000000.0
sbag0
(g56
tp354
Rp355
(dp356
g5
g6
sg60
F210000000000.0
sg61
g62
sg63
F7700.0
sg64
g31
(g35
S'\xa4p=\n\xd7\xa3\xc0?'
p357
tp358
Rp359
sg68
F100000000.0
sbag0
(g56
tp360
Rp361
(dp362
g5
g6
sg60
F210000000000.0
sg61
g62
sg63
F7700.0
sg64
g31
(g35
S'\xecQ\xb8\x1e\x85\xeb\xc1?'
p363
tp364
Rp365
sg68
F100000000.0
sbag0
(g56
tp366
Rp367
(dp368
g5
g6
sg60
F210000000000.0
sg61
g62
sg63
F7700.0
sg64
g31
(g35
S'433333\xc3?'
p369
tp370
Rp371
sg68
F100000000.0
sbag0
(g56
tp372
Rp373
(dp374
g5
g6
sg60
F210000000000.0
sg61
g62
sg63
F7700.0
sg64
g31
(g35
S'|\x14\xaeG\xe1z\xc4?'
p375
tp376
Rp377
sg68
F100000000.0
sbag0
(g56
tp378
Rp379
(dp380
g5
g6
sg60
F210000000000.0
sg61
g62
sg63
F7700.0
sg64
g31
(g35
S'\xc4\xf5(\\\x8f\xc2\xc5?'
p381
tp382
Rp383
sg68
F100000000.0
sbag0
(g56
tp384
Rp385
(dp386
g5
g6
sg60
F210000000000.0
sg61
g62
sg63
F7700.0
sg64
g31
(g35
S'\x0c\xd7\xa3p=\n\xc7?'
p387
tp388
Rp389
sg68
F100000000.0
sbag0
(g56
tp390
Rp391
(dp392
g5
g6
sg60
F210000000000.0
sg61
g62
sg63
F7700.0
sg64
g31
(g35
S'R\xb8\x1e\x85\xebQ\xc8?'
p393
tp394
Rp395
sg68
F100000000.0
sbag0
(g56
tp396
Rp397
(dp398
g5
g6
sg60
F210000000000.0
sg61
g62
sg63
F7700.0
sg64
g31
(g35
S'\x9a\x99\x99\x99\x99\x99\xc9?'
p399
tp400
Rp401
sg68
F100000000.0
sbag0
(g56
tp402
Rp403
(dp404
g5
g6
sg60
F210000000000.0
sg61
g62
sg63
F7700.0
sg64
g31
(g35
S'\xe2z\x14\xaeG\xe1\xca?'
p405
tp406
Rp407
sg68
F100000000.0
sbag0
(g56
tp408
Rp409
(dp410
g5
g6
sg60
F210000000000.0
sg61
g62
sg63
F7700.0
sg64
g31
(g35
S'*\\\x8f\xc2\xf5(\xcc?'
p411
tp412
Rp413
sg68
F100000000.0
sbag0
(g56
tp414
Rp415
(dp416
g5
g6
sg60
F210000000000.0
sg61
g62
sg63
F7700.0
sg64
g31
(g35
S'r=\n\xd7\xa3p\xcd?'
p417
tp418
Rp419
sg68
F100000000.0
sbag0
(g56
tp420
Rp421
(dp422
g5
g6
sg60
F210000000000.0
sg61
g62
sg63
F7700.0
sg64
g31
(g35
S'\xba\x1e\x85\xebQ\xb8\xce?'
p423
tp424
Rp425
sg68
F100000000.0
sbatp426
Rp427
(dp428
g295
S'available_element_materials_items'
p429
sg297
g3
sg61
g298
sbsS'weight_factor'
p430
F1.0
sS'joints'
p431
g8
(g9
g10
(lp432
g146
ag134
ag122
ag110
ag98
ag86
ag74
ag47
ag20
ag251
ag227
ag212
ag188
ag173
ag158
ag278
atp433
Rp434
(dp435
g295
S'joints_items'
p436
sg297
g3
sg61
g431
sbsS'element_deleted_material'
p437
g0
(g56
tp438
Rp439
(dp440
g5
g6
sg60
F100.0
sg61
S'air (deleted element)'
p441
sg63
F1.0
sg64
F9.9999999999999995e-07
sg68
F9.9999999999999997e+98
sbsS'height'
p442
F6.0
sS'width'
p443
F26.0
sS'joint_force_magnitude'
p444
F1000000.0
sb.