centhought.traits.traits
__newobj__
p0
(cmodel
Construction
p1
tp2
Rp3
(dp4
S'__traits_version__'
p5
S'3.1.0'
p6
sS'elements'
p7
ccopy_reg
_reconstructor
p8
(centhought.traits.trait_handlers
TraitListObject
p9
c__builtin__
list
p10
(lp11
g0
(cmodel
Element
p12
tp13
Rp14
(dp15
g5
g6
sS'mutatable_material'
p16
I01
sS'joint1'
p17
g0
(cmodel
Joint
p18
tp19
Rp20
(dp21
g5
g6
sS'mutatable_y'
p22
I01
sS'mutatable_x'
p23
I00
sS'max_displacement_y'
p24
F0.10000000000000001
sS'max_displacement_x'
p25
F0.10000000000000001
sS'force_y'
p26
F0.0
sS'force_x'
p27
F0.0
sS'movable_x'
p28
I01
sS'movable_y'
p29
I01
sS'y'
p30
cnumpy.core.multiarray
scalar
p31
(cnumpy
dtype
p32
(S'f8'
p33
I0
I1
tp34
Rp35
(I3
S'<'
p36
NNNI-1
I-1
I0
tp37
bS'\x00\x00\x00\x00\x00\x00\x08\xc0'
p38
tp39
Rp40
sS'x'
p41
g31
(g35
S'\x00\x00\x00\x00\x00\x00\x00\x80'
p42
tp43
Rp44
sbsS'joint2'
p45
g0
(g18
tp46
Rp47
(dp48
g5
g6
sg22
I01
sg23
I00
sg24
F0.10000000000000001
sg25
F0.10000000000000001
sg26
F0.0
sg27
F0.0
sg28
I01
sg29
I01
sg30
g31
(g35
S'\x00\x00\x00\x00\x00\x00\x08\xc0'
p49
tp50
Rp51
sg41
g31
(g35
S'\x00\x00\x00\x00\x00\x00\x14@'
p52
tp53
Rp54
sbsS'material'
p55
g0
(cmodel
ElementMaterial
p56
tp57
Rp58
(dp59
g5
g6
sS'E'
p60
F68947573000.0
sS'name'
p61
S'aluminium'
p62
sS'density'
p63
F2767.9904999999999
sS'radius'
p64
F0.050000000000000003
sS'maximum_stress'
p65
F172368930.0
sbsS'deletable'
p66
I01
sbag0
(g12
tp67
Rp68
(dp69
g5
g6
sg16
I01
sg17
g47
sg45
g0
(g18
tp70
Rp71
(dp72
g5
g6
sg22
I01
sg23
I00
sg24
F0.10000000000000001
sg25
F0.10000000000000001
sg26
F0.0
sg27
F0.0
sg28
I01
sg29
I01
sg30
g31
(g35
S'\x00\x00\x00\x00\x00\x00\x08@'
p73
tp74
Rp75
sg41
g31
(g35
S'\x00\x00\x00\x00\x00\x00\x14@'
p76
tp77
Rp78
sbsg55
g58
sg66
I01
sbag0
(g12
tp79
Rp80
(dp81
g5
g6
sg16
I01
sg17
g0
(g18
tp82
Rp83
(dp84
g5
g6
sg22
I01
sg23
I00
sg24
F0.10000000000000001
sg25
F0.10000000000000001
sg26
F0.0
sg27
F0.0
sg28
I01
sg29
I01
sg30
g31
(g35
S'\x00\x00\x00\x00\x00\x00\x08@'
p85
tp86
Rp87
sg41
g31
(g35
S'\x00\x00\x00\x00\x00\x00$@'
p88
tp89
Rp90
sbsg45
g71
sg55
g58
sg66
I00
sbag0
(g12
tp91
Rp92
(dp93
g5
g6
sg16
I01
sg17
g71
sg45
g0
(g18
tp94
Rp95
(dp96
g5
g6
sg22
I01
sg23
I00
sg24
F0.10000000000000001
sg25
F0.10000000000000001
sg26
F0.0
sg27
F0.0
sg28
I01
sg29
I01
sg30
g31
(g35
S'\x00\x00\x00\x00\x00\x00\x08@'
p97
tp98
Rp99
sg41
g31
(g35
S'\x00\x00\x00\x00\x00\x00\x00\x80'
p100
tp101
Rp102
sbsg55
g58
sg66
I00
sbag0
(g12
tp103
Rp104
(dp105
g5
g6
sg16
I01
sg17
g0
(g18
tp106
Rp107
(dp108
g5
g6
sg22
I01
sg23
I00
sg24
F0.10000000000000001
sg25
F0.10000000000000001
sg26
F0.0
sg27
F0.0
sg28
I01
sg29
I01
sg30
g31
(g35
S'\x00\x00\x00\x00\x00\x00\x08\xc0'
p109
tp110
Rp111
sg41
g31
(g35
S'\x00\x00\x00\x00\x00\x00$\xc0'
p112
tp113
Rp114
sbsg45
g0
(g18
tp115
Rp116
(dp117
g5
g6
sg22
I01
sg23
I00
sg24
F0.10000000000000001
sg25
F0.10000000000000001
sg26
F0.0
sg27
F0.0
sg28
I01
sg29
I01
sg30
g31
(g35
S'\x00\x00\x00\x00\x00\x00\x08\xc0'
p118
tp119
Rp120
sg41
g31
(g35
S'\x00\x00\x00\x00\x00\x00\x14\xc0'
p121
tp122
Rp123
sbsg55
g58
sg66
I01
sbag0
(g12
tp124
Rp125
(dp126
g5
g6
sg16
I01
sg17
g116
sg45
g20
sg55
g58
sg66
I01
sbag0
(g12
tp127
Rp128
(dp129
g5
g6
sg16
I01
sg17
g20
sg45
g71
sg55
g58
sg66
I01
sbag0
(g12
tp130
Rp131
(dp132
g5
g6
sg16
I01
sg17
g95
sg45
g0
(g18
tp133
Rp134
(dp135
g5
g6
sg22
I01
sg23
I00
sg24
F0.10000000000000001
sg25
F0.10000000000000001
sg26
F0.0
sg27
F0.0
sg28
I01
sg29
I01
sg30
g31
(g35
S'\x00\x00\x00\x00\x00\x00\x08@'
p136
tp137
Rp138
sg41
g31
(g35
S'\x00\x00\x00\x00\x00\x00\x14\xc0'
p139
tp140
Rp141
sbsg55
g58
sg66
I00
sbag0
(g12
tp142
Rp143
(dp144
g5
g6
sg16
I01
sg17
g134
sg45
g0
(g18
tp145
Rp146
(dp147
g5
g6
sg22
I01
sg23
I00
sg24
F0.10000000000000001
sg25
F0.10000000000000001
sg26
F0.0
sg27
F0.0
sg28
I01
sg29
I01
sg30
g31
(g35
S'\x00\x00\x00\x00\x00\x00\x08@'
p148
tp149
Rp150
sg41
g31
(g35
S'\x00\x00\x00\x00\x00\x00$\xc0'
p151
tp152
Rp153
sbsg55
g58
sg66
I00
sbag0
(g12
tp154
Rp155
(dp156
g5
g6
sg16
I01
sg17
g0
(g18
tp157
Rp158
(dp159
g5
g6
sg22
I01
sg23
I00
sg24
F0.10000000000000001
sg25
F0.10000000000000001
sg26
F0.0
sg27
F0.0
sg28
I01
sg29
I01
sg30
g31
(g35
S'\x00\x00\x00\x00\x00\x00\x08@'
p160
tp161
Rp162
sg41
g31
(g35
S'\x00\x00\x00\x00\x00\x00.\xc0'
p163
tp164
Rp165
sbsg45
g146
sg55
g58
sg66
I00
sbag0
(g12
tp166
Rp167
(dp168
g5
g6
sg16
I01
sg17
g146
sg45
g0
(g18
tp169
Rp170
(dp171
g5
g6
sg22
I01
sg23
I00
sg24
F0.10000000000000001
sg25
F0.10000000000000001
sg26
F0.0
sg27
F0.0
sg28
I01
sg29
I01
sg30
g31
(g35
S'\x00\x00\x00\x00\x00\x00\x08\xc0'
p172
tp173
Rp174
sg41
g31
(g35
S'\x00\x00\x00\x00\x00\x00.\xc0'
p175
tp176
Rp177
sbsg55
g58
sg66
I01
sbag0
(g12
tp178
Rp179
(dp180
g5
g6
sg16
I01
sg17
g170
sg45
g107
sg55
g58
sg66
I01
sbag0
(g12
tp181
Rp182
(dp183
g5
g6
sg16
I01
sg17
g170
sg45
g0
(g18
tp184
Rp185
(dp186
g5
g6
sg22
I01
sg23
I00
sg24
F0.10000000000000001
sg25
F0.10000000000000001
sg26
F0.0
sg27
F0.0
sg28
I00
sg29
I00
sg30
g31
(g35
S'\x00\x00\x00\x00\x00\x00\x08\xc0'
p187
tp188
Rp189
sg41
g31
(g35
S'\x00\x00\x00\x00\x00\x004\xc0'
p190
tp191
Rp192
sbsg55
g58
sg66
I01
sbag0
(g12
tp193
Rp194
(dp195
g5
g6
sg16
I01
sg17
g185
sg45
g158
sg55
g58
sg66
I01
sbag0
(g12
tp196
Rp197
(dp198
g5
g6
sg16
I01
sg17
g158
sg45
g0
(g18
tp199
Rp200
(dp201
g5
g6
sg22
I01
sg23
I00
sg24
F0.10000000000000001
sg25
F0.10000000000000001
sg26
F0.0
sg27
F0.0
sg28
I00
sg29
I00
sg30
g31
(g35
S'\x00\x00\x00\x00\x00\x00\x08@'
p202
tp203
Rp204
sg41
g31
(g35
S'\x00\x00\x00\x00\x00\x004\xc0'
p205
tp206
Rp207
sbsg55
g58
sg66
I00
sbag0
(g12
tp208
Rp209
(dp210
g5
g6
sg16
I01
sg17
g158
sg45
g170
sg55
g58
sg66
I01
sbag0
(g12
tp211
Rp212
(dp213
g5
g6
sg16
I01
sg17
g170
sg45
g200
sg55
g58
sg66
I01
sbag0
(g12
tp214
Rp215
(dp216
g5
g6
sg16
I01
sg17
g158
sg45
g107
sg55
g58
sg66
I01
sbag0
(g12
tp217
Rp218
(dp219
g5
g6
sg16
I01
sg17
g107
sg45
g134
sg55
g58
sg66
I01
sbag0
(g12
tp220
Rp221
(dp222
g5
g6
sg16
I01
sg17
g134
sg45
g20
sg55
g58
sg66
I01
sbag0
(g12
tp223
Rp224
(dp225
g5
g6
sg16
I01
sg17
g20
sg45
g95
sg55
g58
sg66
I01
sbag0
(g12
tp226
Rp227
(dp228
g5
g6
sg16
I01
sg17
g95
sg45
g116
sg55
g58
sg66
I01
sbag0
(g12
tp229
Rp230
(dp231
g5
g6
sg16
I01
sg17
g116
sg45
g146
sg55
g58
sg66
I01
sbag0
(g12
tp232
Rp233
(dp234
g5
g6
sg16
I01
sg17
g146
sg45
g107
sg55
g58
sg66
I01
sbag0
(g12
tp235
Rp236
(dp237
g5
g6
sg16
I01
sg17
g134
sg45
g116
sg55
g58
sg66
I01
sbag0
(g12
tp238
Rp239
(dp240
g5
g6
sg16
I01
sg17
g47
sg45
g0
(g18
tp241
Rp242
(dp243
g5
g6
sg22
I01
sg23
I00
sg24
F0.10000000000000001
sg25
F0.10000000000000001
sg26
F0.0
sg27
F0.0
sg28
I01
sg29
I01
sg30
g31
(g35
S'\x00\x00\x00\x00\x00\x00\x08\xc0'
p244
tp245
Rp246
sg41
g31
(g35
S'\x00\x00\x00\x00\x00\x00$@'
p247
tp248
Rp249
sbsg55
g58
sg66
I01
sbag0
(g12
tp250
Rp251
(dp252
g5
g6
sg16
I01
sg17
g0
(g18
tp253
Rp254
(dp255
g5
g6
sg22
I01
sg23
I00
sg24
F0.10000000000000001
sg25
F0.10000000000000001
sg26
F0.0
sg27
F0.0
sg28
I01
sg29
I01
sg30
g31
(g35
S'\x00\x00\x00\x00\x00\x00\x08@'
p256
tp257
Rp258
sg41
g31
(g35
S'\x00\x00\x00\x00\x00\x00.@'
p259
tp260
Rp261
sbsg45
g83
sg55
g58
sg66
I00
sbag0
(g12
tp262
Rp263
(dp264
g5
g6
sg16
I01
sg17
g83
sg45
g242
sg55
g58
sg66
I01
sbag0
(g12
tp265
Rp266
(dp267
g5
g6
sg16
I01
sg17
g242
sg45
g254
sg55
g58
sg66
I01
sbag0
(g12
tp268
Rp269
(dp270
g5
g6
sg16
I01
sg17
g254
sg45
g0
(g18
tp271
Rp272
(dp273
g5
g6
sg22
I00
sg23
I00
sg24
F0.10000000000000001
sg25
F0.10000000000000001
sg26
F-1.0
sg27
F0.0
sg28
I01
sg29
I01
sg30
F3.0
sg41
F20.0
sbsg55
g58
sg66
I00
sbag0
(g12
tp274
Rp275
(dp276
g5
g6
sg16
I01
sg17
g272
sg45
g0
(g18
tp277
Rp278
(dp279
g5
g6
sg22
I01
sg23
I00
sg24
F0.10000000000000001
sg25
F0.10000000000000001
sg26
F0.0
sg27
F0.0
sg28
I01
sg29
I01
sg30
g31
(g35
S'\x00\x00\x00\x00\x00\x00\x08\xc0'
p280
tp281
Rp282
sg41
g31
(g35
S'\x00\x00\x00\x00\x00\x00.@'
p283
tp284
Rp285
sbsg55
g58
sg66
I01
sbag0
(g12
tp286
Rp287
(dp288
g5
g6
sg16
I01
sg17
g278
sg45
g254
sg55
g58
sg66
I01
sbag0
(g12
tp289
Rp290
(dp291
g5
g6
sg16
I01
sg17
g278
sg45
g242
sg55
g58
sg66
I01
sbag0
(g12
tp292
Rp293
(dp294
g5
g6
sg16
I01
sg17
g47
sg45
g83
sg55
g58
sg66
I01
sbag0
(g12
tp295
Rp296
(dp297
g5
g6
sg16
I01
sg17
g83
sg45
g278
sg55
g58
sg66
I01
sbag0
(g12
tp298
Rp299
(dp300
g5
g6
sg16
I01
sg17
g47
sg45
g95
sg55
g58
sg66
I01
sbag0
(g12
tp301
Rp302
(dp303
g5
g6
sg16
I01
sg17
g71
sg45
g242
sg55
g58
sg66
I01
sbatp304
Rp305
(dp306
S'name_items'
p307
S'elements_items'
p308
sS'object'
p309
g3
sg61
g7
sbsS'available_element_materials'
p310
g8
(g9
g10
(lp311
g58
atp312
Rp313
(dp314
g307
S'available_element_materials_items'
p315
sg309
g3
sg61
g310
sbsS'weight_factor'
p316
F1.0
sS'joints'
p317
g8
(g9
g10
(lp318
g107
ag146
ag116
ag134
ag20
ag95
ag71
ag47
ag83
ag242
ag158
ag200
ag185
ag170
ag254
ag272
ag278
atp319
Rp320
(dp321
g307
S'joints_items'
p322
sg309
g3
sg61
g317
sbsS'element_deleted_material'
p323
g0
(g56
tp324
Rp325
(dp326
g5
g6
sg60
F100.0
sg61
S'deleted'
p327
sg63
F1.0
sg64
F9.9999999999999995e-07
sg65
F9.9999999999999997e+98
sbsS'height'
p328
F16.0
sS'width'
p329
F42.0
sS'joint_force_magnitude'
p330
F10000.0
sb.