centhought.traits.traits
__newobj__
p0
(cmodel
Construction
p1
tp2
Rp3
(dp4
S'__traits_version__'
p5
S'3.1.0'
p6
sS'elements'
p7
ccopy_reg
_reconstructor
p8
(centhought.traits.trait_handlers
TraitListObject
p9
c__builtin__
list
p10
(lp11
g0
(cmodel
Element
p12
tp13
Rp14
(dp15
g5
g6
sS'mutatable_material'
p16
I01
sS'joint1'
p17
g0
(cmodel
Joint
p18
tp19
Rp20
(dp21
g5
g6
sS'mutatable_y'
p22
I01
sS'mutatable_x'
p23
I00
sS'max_displacement_y'
p24
F0.050000000000000003
sS'max_displacement_x'
p25
F0.050000000000000003
sS'force_y'
p26
F0.0
sS'force_x'
p27
F0.0
sS'movable_x'
p28
I01
sS'movable_y'
p29
I01
sS'y'
p30
cnumpy.core.multiarray
scalar
p31
(cnumpy
dtype
p32
(S'f8'
p33
I0
I1
tp34
Rp35
(I3
S'<'
p36
NNNI-1
I-1
I0
tp37
bS'\x00\x00\x00\x00\x00\x00\x00\x00'
p38
tp39
Rp40
sS'x'
p41
g31
(g35
S'\x00\x00\x00\x00\x00\x00"@'
p42
tp43
Rp44
sbsS'joint2'
p45
g0
(g18
tp46
Rp47
(dp48
g5
g6
sg22
I00
sg23
I00
sg24
F0.050000000000000003
sg25
F0.050000000000000003
sg26
F-1.0
sg27
F0.0
sg28
I01
sg29
I01
sg30
F-12.0
sg41
F9.0
sbsS'material'
p49
g0
(cmodel
ElementMaterial
p50
tp51
Rp52
(dp53
g5
g6
sS'E'
p54
F68947573000.0
sS'name'
p55
S'aluminium'
p56
sS'density'
p57
F2767.9904999999999
sS'radius'
p58
g31
(g35
S'\xac\x7f%A\xc5;\xb5?'
p59
tp60
Rp61
sS'maximum_stress'
p62
F172368930.0
sbsS'deletable'
p63
I01
sbag0
(g12
tp64
Rp65
(dp66
g5
g6
sg16
I01
sg17
g47
sg45
g0
(g18
tp67
Rp68
(dp69
g5
g6
sg22
I00
sg23
I00
sg24
F0.050000000000000003
sg25
F0.050000000000000003
sg26
F-1.0
sg27
F0.0
sg28
I01
sg29
I01
sg30
F-12.0
sg41
F0.0
sbsg49
g52
sg63
I00
sbag0
(g12
tp70
Rp71
(dp72
g5
g6
sg16
I01
sg17
g68
sg45
g0
(g18
tp73
Rp74
(dp75
g5
g6
sg22
I00
sg23
I00
sg24
F0.050000000000000003
sg25
F0.050000000000000003
sg26
F0.0
sg27
F0.0
sg28
I00
sg29
I00
sg30
g31
(g35
S'\x00\x00\x00\x00\x00\x00(\xc0'
p76
tp77
Rp78
sg41
g31
(g35
S'\x00\x00\x00\x00\x00\x00"\xc0'
p79
tp80
Rp81
sbsg49
g52
sg63
I00
sbag0
(g12
tp82
Rp83
(dp84
g5
g6
sg16
I01
sg17
g0
(g18
tp85
Rp86
(dp87
g5
g6
sg22
I01
sg23
I00
sg24
F0.050000000000000003
sg25
F0.050000000000000003
sg26
F0.0
sg27
F0.0
sg28
I00
sg29
I00
sg30
F0.0
sg41
F-9.0
sbsg45
g0
(g18
tp88
Rp89
(dp90
g5
g6
sg22
I01
sg23
I00
sg24
F0.050000000000000003
sg25
F0.050000000000000003
sg26
F0.0
sg27
F0.0
sg28
I01
sg29
I01
sg30
g31
(g35
S'\x00\x00\x00\x00\x00\x00\x00\x00'
p91
tp92
Rp93
sg41
g31
(g35
S'\x00\x00\x00\x00\x00\x00\x00\x00'
p94
tp95
Rp96
sbsg49
g52
sg63
I01
sbag0
(g12
tp97
Rp98
(dp99
g5
g6
sg16
I01
sg17
g89
sg45
g20
sg49
g52
sg63
I01
sbag0
(g12
tp100
Rp101
(dp102
g5
g6
sg16
I01
sg17
g89
sg45
g68
sg49
g52
sg63
I01
sbag0
(g12
tp103
Rp104
(dp105
g5
g6
sg16
I01
sg17
g68
sg45
g20
sg49
g52
sg63
I01
sbag0
(g12
tp106
Rp107
(dp108
g5
g6
sg16
I01
sg17
g47
sg45
g89
sg49
g52
sg63
I01
sbag0
(g12
tp109
Rp110
(dp111
g5
g6
sg16
I01
sg17
g89
sg45
g74
sg49
g52
sg63
I01
sbag0
(g12
tp112
Rp113
(dp114
g5
g6
sg16
I01
sg17
g86
sg45
g68
sg49
g52
sg63
I01
sbatp115
Rp116
(dp117
S'name_items'
p118
S'elements_items'
p119
sS'object'
p120
g3
sg55
g7
sbsS'available_element_materials'
p121
g8
(g9
g10
(lp122
g0
(g50
tp123
Rp124
(dp125
g5
g6
sg54
F68947573000.0
sg55
g56
sg57
F2767.9904999999999
sg58
g31
(g35
S'\x8c\x84_\x97i\xad\x92?'
p126
tp127
Rp128
sg62
F172368930.0
sbag0
(g50
tp129
Rp130
(dp131
g5
g6
sg54
F68947573000.0
sg55
g56
sg57
F2767.9904999999999
sg58
g31
(g35
S'\xfd\xb0] \r\xb0\x93?'
p132
tp133
Rp134
sg62
F172368930.0
sbag0
(g50
tp135
Rp136
(dp137
g5
g6
sg54
F68947573000.0
sg55
g56
sg57
F2767.9904999999999
sg58
g31
(g35
S'\x1b\x1cqBs\xa3\x96?'
p138
tp139
Rp140
sg62
F172368930.0
sbag0
(g50
tp141
Rp142
(dp143
g5
g6
sg54
F68947573000.0
sg55
g56
sg57
F2767.9904999999999
sg58
g31
(g35
S'a\xd1?\n\xa4\xc0\x97?'
p144
tp145
Rp146
sg62
F172368930.0
sbag0
(g50
tp147
Rp148
(dp149
g5
g6
sg54
F68947573000.0
sg55
g56
sg57
F2767.9904999999999
sg58
g31
(g35
S'f[\x7ft7\xe7\x98?'
p150
tp151
Rp152
sg62
F172368930.0
sbag0
(g50
tp153
Rp154
(dp155
g5
g6
sg54
F68947573000.0
sg55
g56
sg57
F2767.9904999999999
sg58
g31
(g35
S'\x17o\x8d\xa2\x8e\xcb\x99?'
p156
tp157
Rp158
sg62
F172368930.0
sbag0
(g50
tp159
Rp160
(dp161
g5
g6
sg54
F68947573000.0
sg55
g56
sg57
F2767.9904999999999
sg58
g31
(g35
S'\xb0\xf2\xb0D)\xf6\x99?'
p162
tp163
Rp164
sg62
F172368930.0
sbag0
(g50
tp165
Rp166
(dp167
g5
g6
sg54
F68947573000.0
sg55
g56
sg57
F2767.9904999999999
sg58
g31
(g35
S'Y\xf8\x89\x13|\xfa\x9a?'
p168
tp169
Rp170
sg62
F172368930.0
sbag0
(g50
tp171
Rp172
(dp173
g5
g6
sg54
F68947573000.0
sg55
g56
sg57
F2767.9904999999999
sg58
g31
(g35
S'\xc0\x93\x07\x96X\xf5\x9b?'
p174
tp175
Rp176
sg62
F172368930.0
sbag0
(g50
tp177
Rp178
(dp179
g5
g6
sg54
F68947573000.0
sg55
g56
sg57
F2767.9904999999999
sg58
g31
(g35
S'\x8d\xa9\x08Pw\xc1\x9c?'
p180
tp181
Rp182
sg62
F172368930.0
sbag0
(g50
tp183
Rp184
(dp185
g5
g6
sg54
F68947573000.0
sg55
g56
sg57
F2767.9904999999999
sg58
g31
(g35
S'B.5\x00t\x00\x9e?'
p186
tp187
Rp188
sg62
F172368930.0
sbag0
(g50
tp189
Rp190
(dp191
g5
g6
sg54
F68947573000.0
sg55
g56
sg57
F2767.9904999999999
sg58
g31
(g35
S'\x9bp\x7fP)\x18\x9f?'
p192
tp193
Rp194
sg62
F172368930.0
sbag0
(g50
tp195
Rp196
(dp197
g5
g6
sg54
F68947573000.0
sg55
g56
sg57
F2767.9904999999999
sg58
g31
(g35
S'\xd7\xaf)D/\x13\xa0?'
p198
tp199
Rp200
sg62
F172368930.0
sbag0
(g50
tp201
Rp202
(dp203
g5
g6
sg54
F68947573000.0
sg55
g56
sg57
F2767.9904999999999
sg58
g31
(g35
S'\x96_\xeesl[\xa0?'
p204
tp205
Rp206
sg62
F172368930.0
sbag0
(g50
tp207
Rp208
(dp209
g5
g6
sg54
F68947573000.0
sg55
g56
sg57
F2767.9904999999999
sg58
g31
(g35
S'\x99\xe7T\xf8$\x9a\xa0?'
p210
tp211
Rp212
sg62
F172368930.0
sbag0
(g50
tp213
Rp214
(dp215
g5
g6
sg54
F68947573000.0
sg55
g56
sg57
F2767.9904999999999
sg58
g31
(g35
S'O\xa863 \x94\xa1?'
p216
tp217
Rp218
sg62
F172368930.0
sbag0
(g50
tp219
Rp220
(dp221
g5
g6
sg54
F68947573000.0
sg55
g56
sg57
F2767.9904999999999
sg58
g31
(g35
S'\x06\xd3\xe4\xe6\x0b\xb7\xa3?'
p222
tp223
Rp224
sg62
F172368930.0
sbag0
(g50
tp225
Rp226
(dp227
g5
g6
sg54
F68947573000.0
sg55
g56
sg57
F2767.9904999999999
sg58
g31
(g35
S's\xbf\x0f\xbb\xb5\xb6\xa4?'
p228
tp229
Rp230
sg62
F172368930.0
sbag0
(g50
tp231
Rp232
(dp233
g5
g6
sg54
F68947573000.0
sg55
g56
sg57
F2767.9904999999999
sg58
g31
(g35
S'\x9d:\xf5\x1f\xae\xe1\xa8?'
p234
tp235
Rp236
sg62
F172368930.0
sbag0
(g50
tp237
Rp238
(dp239
g5
g6
sg54
F68947573000.0
sg55
g56
sg57
F2767.9904999999999
sg58
g31
(g35
S'\xf4\x1e\x08\xdb_\xf5\xaa?'
p240
tp241
Rp242
sg62
F172368930.0
sbag0
(g50
tp243
Rp244
(dp245
g5
g6
sg54
F68947573000.0
sg55
g56
sg57
F2767.9904999999999
sg58
g31
(g35
S"\x97\xee'\xe5\xdeZ\xab?"
p246
tp247
Rp248
sg62
F172368930.0
sbag0
(g50
tp249
Rp250
(dp251
g5
g6
sg54
F68947573000.0
sg55
g56
sg57
F2767.9904999999999
sg58
g31
(g35
S'7xr\xae\t\xa6\xab?'
p252
tp253
Rp254
sg62
F172368930.0
sbag0
(g50
tp255
Rp256
(dp257
g5
g6
sg54
F68947573000.0
sg55
g56
sg57
F2767.9904999999999
sg58
g31
(g35
S'\x06\x82a5\xf0\xe2\xac?'
p258
tp259
Rp260
sg62
F172368930.0
sbag0
(g50
tp261
Rp262
(dp263
g5
g6
sg54
F68947573000.0
sg55
g56
sg57
F2767.9904999999999
sg58
g31
(g35
S'H\xca\x9b\xccCY\xad?'
p264
tp265
Rp266
sg62
F172368930.0
sbag0
(g50
tp267
Rp268
(dp269
g5
g6
sg54
F68947573000.0
sg55
g56
sg57
F2767.9904999999999
sg58
g31
(g35
S'\xfd\xb0] \r\xb0\xb3?'
p270
tp271
Rp272
sg62
F172368930.0
sbag0
(g50
tp273
Rp274
(dp275
g5
g6
sg54
F68947573000.0
sg55
g56
sg57
F2767.9904999999999
sg58
g31
(g35
S'Br\xfa\x8a\x87]\xb0?'
p276
tp277
Rp278
sg62
F172368930.0
sbag0
(g50
tp279
Rp280
(dp281
g5
g6
sg54
F68947573000.0
sg55
g56
sg57
F2767.9904999999999
sg58
g31
(g35
S'\xe9\x9b\x03\xbf\n5\xb1?'
p282
tp283
Rp284
sg62
F172368930.0
sbag0
(g50
tp285
Rp286
(dp287
g5
g6
sg54
F68947573000.0
sg55
g56
sg57
F2767.9904999999999
sg58
g31
(g35
S'N\xc7a\xf2=\x8e\xb1?'
p288
tp289
Rp290
sg62
F172368930.0
sbag0
(g50
tp291
Rp292
(dp293
g5
g6
sg54
F68947573000.0
sg55
g56
sg57
F2767.9904999999999
sg58
g31
(g35
S'%\xa48\xbc\x9c\xe2\xb2?'
p294
tp295
Rp296
sg62
F172368930.0
sbag0
(g50
tp297
Rp298
(dp299
g5
g6
sg54
F68947573000.0
sg55
g56
sg57
F2767.9904999999999
sg58
g31
(g35
S'\xcc\x1b4\x15\xfb\x17\xb4?'
p300
tp301
Rp302
sg62
F172368930.0
sbag52
atp303
Rp304
(dp305
g118
S'available_element_materials_items'
p306
sg120
g3
sg55
g121
sbsS'weight_factor'
p307
F1.0
sS'joints'
p308
g8
(g9
g10
(lp309
g74
ag86
ag68
ag47
ag20
ag89
atp310
Rp311
(dp312
g118
S'joints_items'
p313
sg120
g3
sg55
g308
sbsS'element_deleted_material'
p314
g0
(g50
tp315
Rp316
(dp317
g5
g6
sg54
F100.0
sg55
S'deleted'
p318
sg57
F1.0
sg58
F9.9999999999999995e-07
sg62
F9.9999999999999997e+98
sbsS'height'
p319
F26.0
sS'width'
p320
F20.0
sS'joint_force_magnitude'
p321
F445000.0
sb.